target datalayout = "e-m:e-p270:32:32-p271:32:32-p272:64:64-i64:64-i128:128-f80:128-n8:16:32:64-S128"
target triple = "x86_64-pc-linux-gnu"

%struct._e_prefs = type { ptr, i32, %struct.color_t, %struct.color_t, %struct.color_t, %struct.color_t, %struct.color_t, %struct.color_t, %struct.color_t, i8, i32, ptr, i32, %struct.color_t, %struct.color_t, i32, %struct.color_t, %struct.color_t, i32, %struct.color_t, %struct.color_t, %struct.color_t, %struct.color_t, ptr, ptr, i8, i8, i8, i32, i32, i32, ptr, i32, ptr, i8, i8, i8, ptr, ptr, ptr, i32, i32, i32, i32, i8, i32, i32, i32, i32, i32, ptr, i8, i8, i8, i8, i8, ptr, ptr, ptr, ptr, ptr, ptr, ptr, ptr, ptr, i8, i8, i8, i8, i32, i8, i8, i8, ptr, i32, i8, i8, i32, i8, i8, i8, i32, i8, i32, i8, i8, i8, i32, i32, i32, ptr, i8, i8, i8, i8, i8, i8, i32, i32, i8, i8, i8, i8, i32, i32, i32, i32, i8, i8, i32, i8, i8, i32, i32, i8, i8, i8, i32, i8, i8, i8 }
%struct.color_t = type { i16, i16, i16 }
%class.QFlags = type { i32 }
%class.QRect = type { i32, i32, i32, i32 }
%class.CapturePreferencesFrame = type { %class.QFrame, ptr, ptr, ptr, ptr, ptr, ptr, ptr, ptr, ptr }
%class.QFrame = type { %class.QWidget }
%class.QWidget = type { %class.QObject, %class.QPaintDevice.base, ptr }
%class.QObject = type { ptr, %class.QScopedPointer }
%class.QScopedPointer = type { ptr }
%class.QPaintDevice.base = type <{ ptr, i16 }>
%class.Ui_CapturePreferencesFrame = type { ptr, ptr, ptr, ptr, ptr, ptr, ptr, ptr, ptr, ptr, ptr, ptr, ptr, ptr, ptr, ptr }

@prefs = external global %struct._e_prefs, align 8

; Function Attrs: inlinehint mustprogress nounwind null_pointer_is_valid sspstrong uwtable
define linkonce_odr void @_ZN5QRect8setWidthEi(ptr noundef align 4 dereferenceable_or_null(16) %0, i32 noundef %1) #1 comdat align 2 {
  %3 = alloca ptr, align 8
  %4 = alloca i32, align 4
  store ptr %0, ptr %3, align 8
  store i32 %1, ptr %4, align 4
  %5 = load ptr, ptr %3, align 8
  %6 = getelementptr inbounds nuw %class.QRect, ptr %5, i32 0, i32 0
  %7 = load i32, ptr %6, align 4
  %8 = load i32, ptr %4, align 4
  %9 = add i32 %7, %8
  %10 = sub i32 %9, 1
  %11 = getelementptr inbounds nuw %class.QRect, ptr %5, i32 0, i32 2
  store i32 %10, ptr %11, align 4
  ret void
}

; Function Attrs: inlinehint mustprogress nounwind null_pointer_is_valid sspstrong uwtable
define linkonce_odr void @_ZN6QFlagsIN2Qt10WindowTypeEEC2Ev(ptr noundef align 4 dereferenceable_or_null(4) %0) unnamed_addr #1 comdat align 2 {
  %2 = alloca ptr, align 8
  store ptr %0, ptr %2, align 8
  %3 = load ptr, ptr %2, align 8
  %4 = getelementptr inbounds nuw %class.QFlags, ptr %3, i32 0, i32 0
  store i32 0, ptr %4, align 4
  ret void
}

; Function Attrs: mustprogress null_pointer_is_valid sspstrong uwtable
define void @_ZN23CapturePreferencesFrameC2EP7QWidget(ptr noundef align 8 dereferenceable_or_null(112) %0, ptr noundef %1) unnamed_addr #0 align 2 personality ptr @__gxx_personality_v0 {
  %3 = alloca ptr, align 8
  %4 = alloca ptr, align 8
  %5 = alloca %class.QFlags, align 4
  %6 = alloca ptr, align 8
  %7 = alloca i32, align 4
  %8 = alloca i32, align 4
  %9 = alloca %class.QRect, align 4
  store ptr %0, ptr %3, align 8
  store ptr %1, ptr %4, align 8
  %10 = load ptr, ptr %3, align 8
  %11 = load ptr, ptr %4, align 8
  call void @_ZN6QFlagsIN2Qt10WindowTypeEEC2Ev(ptr noundef align 4 dereferenceable_or_null(4) %5) #16
  %12 = getelementptr inbounds nuw %class.QFlags, ptr %5, i32 0, i32 0
  %13 = load i32, ptr %12, align 4
  call void @_ZN6QFrameC2EP7QWidget6QFlagsIN2Qt10WindowTypeEE(ptr noundef align 8 dereferenceable_or_null(40) %10, ptr noundef %11, i32 %13)
  store ptr getelementptr inbounds inrange(-16, 424) ({ [55 x ptr], [10 x ptr] }, ptr @_ZTV23CapturePreferencesFrame, i32 0, i32 0, i32 2), ptr %10, align 8
  %14 = getelementptr inbounds i8, ptr %10, i64 16
  store ptr getelementptr inbounds inrange(-16, 64) ({ [55 x ptr], [10 x ptr] }, ptr @_ZTV23CapturePreferencesFrame, i32 0, i32 1, i32 2), ptr %14, align 8
  %15 = getelementptr inbounds nuw %class.CapturePreferencesFrame, ptr %10, i32 0, i32 1
  %16 = invoke noalias noundef ptr @_Znwm(i64 noundef 128) #17
          to label %17 unwind label %74

17:                                               ; preds = %2
  store ptr %16, ptr %15, align 8
  %18 = getelementptr inbounds nuw %class.CapturePreferencesFrame, ptr %10, i32 0, i32 1
  %19 = load ptr, ptr %18, align 8
  invoke void @_ZN26Ui_CapturePreferencesFrame7setupUiEP6QFrame(ptr noundef align 8 dereferenceable_or_null(128) %19, ptr noundef %10)
          to label %20 unwind label %74

20:                                               ; preds = %17
  %21 = invoke noundef ptr @_Z15prefFromPrefPtrPv(ptr noundef getelementptr inbounds nuw (%struct._e_prefs, ptr @prefs, i32 0, i32 56))
          to label %22 unwind label %74

22:                                               ; preds = %20
  %23 = getelementptr inbounds nuw %class.CapturePreferencesFrame, ptr %10, i32 0, i32 2
  store ptr %21, ptr %23, align 8
  %24 = invoke noundef ptr @_Z15prefFromPrefPtrPv(ptr noundef getelementptr inbounds nuw (%struct._e_prefs, ptr @prefs, i32 0, i32 65))
          to label %25 unwind label %74

25:                                               ; preds = %22
  %26 = getelementptr inbounds nuw %class.CapturePreferencesFrame, ptr %10, i32 0, i32 3
  store ptr %24, ptr %26, align 8
  %27 = invoke noundef ptr @_Z15prefFromPrefPtrPv(ptr noundef getelementptr inbounds nuw (%struct._e_prefs, ptr @prefs, i32 0, i32 66))
          to label %28 unwind label %74

28:                                               ; preds = %25
  %29 = getelementptr inbounds nuw %class.CapturePreferencesFrame, ptr %10, i32 0, i32 4
  store ptr %27, ptr %29, align 8
  %30 = invoke noundef ptr @_Z15prefFromPrefPtrPv(ptr noundef getelementptr inbounds nuw (%struct._e_prefs, ptr @prefs, i32 0, i32 67))
          to label %31 unwind label %74

31:                                               ; preds = %28
  %32 = getelementptr inbounds nuw %class.CapturePreferencesFrame, ptr %10, i32 0, i32 5
  store ptr %30, ptr %32, align 8
  %33 = invoke noundef ptr @_Z15prefFromPrefPtrPv(ptr noundef getelementptr inbounds nuw (%struct._e_prefs, ptr @prefs, i32 0, i32 68))
          to label %34 unwind label %74

34:                                               ; preds = %31
  %35 = getelementptr inbounds nuw %class.CapturePreferencesFrame, ptr %10, i32 0, i32 6
  store ptr %33, ptr %35, align 8
  %36 = invoke noundef ptr @_Z15prefFromPrefPtrPv(ptr noundef getelementptr inbounds nuw (%struct._e_prefs, ptr @prefs, i32 0, i32 69))
          to label %37 unwind label %74

37:                                               ; preds = %34
  %38 = getelementptr inbounds nuw %class.CapturePreferencesFrame, ptr %10, i32 0, i32 7
  store ptr %36, ptr %38, align 8
  %39 = invoke noundef ptr @_Z15prefFromPrefPtrPv(ptr noundef getelementptr inbounds nuw (%struct._e_prefs, ptr @prefs, i32 0, i32 70))
          to label %40 unwind label %74

40:                                               ; preds = %37
  %41 = getelementptr inbounds nuw %class.CapturePreferencesFrame, ptr %10, i32 0, i32 8
  store ptr %39, ptr %41, align 8
  %42 = invoke noundef ptr @_Z15prefFromPrefPtrPv(ptr noundef getelementptr inbounds nuw (%struct._e_prefs, ptr @prefs, i32 0, i32 71))
          to label %43 unwind label %74

43:                                               ; preds = %40
  %44 = getelementptr inbounds nuw %class.CapturePreferencesFrame, ptr %10, i32 0, i32 9
  store ptr %42, ptr %44, align 8
  call void @llvm.lifetime.start.p0(i64 4, ptr %8) #16
  %45 = invoke noundef ptr @_ZNK7QWidget5styleEv(ptr noundef align 8 dereferenceable_or_null(40) %10)
          to label %46 unwind label %78

46:                                               ; preds = %43
  %47 = load ptr, ptr %45, align 8
  %48 = getelementptr inbounds ptr, ptr %47, i64 28
  %49 = load ptr, ptr %48, align 8
  %50 = invoke noundef i32 %49(ptr noundef align 8 dereferenceable_or_null(16) %45, i32 noundef 75, ptr noundef null, ptr noundef null)
          to label %51 unwind label %78

51:                                               ; preds = %46
  store i32 %50, ptr %8, align 4
  call void @llvm.lifetime.start.p0(i64 16, ptr %9) #16
  %52 = getelementptr inbounds nuw %class.CapturePreferencesFrame, ptr %10, i32 0, i32 1
  %53 = load ptr, ptr %52, align 8
  %54 = getelementptr inbounds nuw %class.Ui_CapturePreferencesFrame, ptr %53, i32 0, i32 3
  %55 = load ptr, ptr %54, align 8
  %56 = load ptr, ptr %55, align 8
  %57 = getelementptr inbounds ptr, ptr %56, i64 7
  %58 = load ptr, ptr %57, align 8
  %59 = invoke { i64, i64 } %58(ptr noundef align 8 dereferenceable_or_null(40) %55)
          to label %60 unwind label %82

60:                                               ; preds = %51
  %61 = getelementptr inbounds nuw { i64, i64 }, ptr %9, i32 0, i32 0
  %62 = extractvalue { i64, i64 } %59, 0
  store i64 %62, ptr %61, align 4
  %63 = getelementptr inbounds nuw { i64, i64 }, ptr %9, i32 0, i32 1
  %64 = extractvalue { i64, i64 } %59, 1
  store i64 %64, ptr %63, align 4
  %65 = load i32, ptr %8, align 4
  call void @_ZN5QRect8setWidthEi(ptr noundef align 4 dereferenceable_or_null(16) %9, i32 noundef %65) #16
  %66 = getelementptr inbounds nuw %class.CapturePreferencesFrame, ptr %10, i32 0, i32 1
  %67 = load ptr, ptr %66, align 8
  %68 = getelementptr inbounds nuw %class.Ui_CapturePreferencesFrame, ptr %67, i32 0, i32 3
  %69 = load ptr, ptr %68, align 8
  %70 = load ptr, ptr %69, align 8
  %71 = getelementptr inbounds ptr, ptr %70, i64 6
  %72 = load ptr, ptr %71, align 8
  invoke void %72(ptr noundef align 8 dereferenceable_or_null(40) %69, ptr noundef align 4 dereferenceable(16) %9)
          to label %73 unwind label %82

73:                                               ; preds = %60
  call void @llvm.lifetime.end.p0(i64 16, ptr %9) #16
  call void @llvm.lifetime.end.p0(i64 4, ptr %8) #16
  ret void

74:                                               ; preds = %40, %37, %34, %31, %28, %25, %22, %20, %17, %2
  %75 = landingpad { ptr, i32 }
          cleanup
  %76 = extractvalue { ptr, i32 } %75, 0
  store ptr %76, ptr %6, align 8
  %77 = extractvalue { ptr, i32 } %75, 1
  store i32 %77, ptr %7, align 4
  br label %87

78:                                               ; preds = %46, %43
  %79 = landingpad { ptr, i32 }
          cleanup
  %80 = extractvalue { ptr, i32 } %79, 0
  store ptr %80, ptr %6, align 8
  %81 = extractvalue { ptr, i32 } %79, 1
  store i32 %81, ptr %7, align 4
  br label %86

82:                                               ; preds = %60, %51
  %83 = landingpad { ptr, i32 }
          cleanup
  %84 = extractvalue { ptr, i32 } %83, 0
  store ptr %84, ptr %6, align 8
  %85 = extractvalue { ptr, i32 } %83, 1
  store i32 %85, ptr %7, align 4
  call void @llvm.lifetime.end.p0(i64 16, ptr %9) #16
  br label %86

86:                                               ; preds = %82, %78
  call void @llvm.lifetime.end.p0(i64 4, ptr %8) #16
  br label %87

87:                                               ; preds = %86, %74
  call void @_ZN6QFrameD2Ev(ptr noundef align 8 dereferenceable_or_null(40) %10) #16
  br label %88

88:                                               ; preds = %87
  %89 = load ptr, ptr %6, align 8
  %90 = load i32, ptr %7, align 4
  %91 = insertvalue { ptr, i32 } poison, ptr %89, 0
  %92 = insertvalue { ptr, i32 } %91, i32 %90, 1
  resume { ptr, i32 } %92
}