; Function Attrs: mustprogress null_pointer_is_valid sspstrong uwtable
define void @_ZN23CapturePreferencesFrameC2EP7QWidget(ptr noundef align 8 dereferenceable_or_null(112) %0, ptr noundef %1) unnamed_addr #0 align 2 personality ptr @__gxx_personality_v0 {
  %3 = alloca %class.QRect, align 8
  tail call void @_ZN6QFrameC2EP7QWidget6QFlagsIN2Qt10WindowTypeEE(ptr noundef align 8 dereferenceable_or_null(40) %0, ptr noundef %1, i32 0)
  store ptr getelementptr inbounds nuw inrange(-16, 424) (i8, ptr @_ZTV23CapturePreferencesFrame, i64 16), ptr %0, align 8
  %4 = getelementptr inbounds nuw i8, ptr %0, i64 16
  store ptr getelementptr inbounds nuw inrange(-16, 64) (i8, ptr @_ZTV23CapturePreferencesFrame, i64 456), ptr %4, align 8
  %5 = getelementptr inbounds nuw i8, ptr %0, i64 40
  %6 = invoke noalias noundef dereferenceable_or_null(128) ptr @_Znwm(i64 noundef 128) #8
          to label %7 unwind label %61

7:                                                ; preds = %2
  store ptr %6, ptr %5, align 8
  invoke void @_ZN26Ui_CapturePreferencesFrame7setupUiEP6QFrame(ptr noundef align 8 dereferenceable_or_null(128) %6, ptr noundef %0)
          to label %8 unwind label %61

8:                                                ; preds = %7
  %9 = invoke noundef ptr @_Z15prefFromPrefPtrPv(ptr noundef nonnull getelementptr inbounds nuw (i8, ptr @prefs, i64 280))
          to label %10 unwind label %61

10:                                               ; preds = %8
  %11 = getelementptr inbounds nuw i8, ptr %0, i64 48
  store ptr %9, ptr %11, align 8
  %12 = invoke noundef ptr @_Z15prefFromPrefPtrPv(ptr noundef nonnull getelementptr inbounds nuw (i8, ptr @prefs, i64 352))
          to label %13 unwind label %61

13:                                               ; preds = %10
  %14 = getelementptr inbounds nuw i8, ptr %0, i64 56
  store ptr %12, ptr %14, align 8
  %15 = invoke noundef ptr @_Z15prefFromPrefPtrPv(ptr noundef nonnull getelementptr inbounds nuw (i8, ptr @prefs, i64 353))
          to label %16 unwind label %61

16:                                               ; preds = %13
  %17 = getelementptr inbounds nuw i8, ptr %0, i64 64
  store ptr %15, ptr %17, align 8
  %18 = invoke noundef ptr @_Z15prefFromPrefPtrPv(ptr noundef nonnull getelementptr inbounds nuw (i8, ptr @prefs, i64 354))
          to label %19 unwind label %61

19:                                               ; preds = %16
  %20 = getelementptr inbounds nuw i8, ptr %0, i64 72
  store ptr %18, ptr %20, align 8
  %21 = invoke noundef ptr @_Z15prefFromPrefPtrPv(ptr noundef nonnull getelementptr inbounds nuw (i8, ptr @prefs, i64 355))
          to label %22 unwind label %61

22:                                               ; preds = %19
  %23 = getelementptr inbounds nuw i8, ptr %0, i64 80
  store ptr %21, ptr %23, align 8
  %24 = invoke noundef ptr @_Z15prefFromPrefPtrPv(ptr noundef nonnull getelementptr inbounds nuw (i8, ptr @prefs, i64 356))
          to label %25 unwind label %61

25:                                               ; preds = %22
  %26 = getelementptr inbounds nuw i8, ptr %0, i64 88
  store ptr %24, ptr %26, align 8
  %27 = invoke noundef ptr @_Z15prefFromPrefPtrPv(ptr noundef nonnull getelementptr inbounds nuw (i8, ptr @prefs, i64 360))
          to label %28 unwind label %61

28:                                               ; preds = %25
  %29 = getelementptr inbounds nuw i8, ptr %0, i64 96
  store ptr %27, ptr %29, align 8
  %30 = invoke noundef ptr @_Z15prefFromPrefPtrPv(ptr noundef nonnull getelementptr inbounds nuw (i8, ptr @prefs, i64 361))
          to label %31 unwind label %61

31:                                               ; preds = %28
  %32 = getelementptr inbounds nuw i8, ptr %0, i64 104
  store ptr %30, ptr %32, align 8
  %33 = invoke noundef ptr @_ZNK7QWidget5styleEv(ptr noundef align 8 dereferenceable_or_null(40) %0)
          to label %34 unwind label %63

34:                                               ; preds = %31
  %35 = load ptr, ptr %33, align 8
  %36 = getelementptr inbounds nuw i8, ptr %35, i64 224
  %37 = load ptr, ptr %36, align 8
  %38 = invoke noundef i32 %37(ptr noundef align 8 dereferenceable_or_null(16) %33, i32 noundef 75, ptr noundef null, ptr noundef null)
          to label %39 unwind label %63

39:                                               ; preds = %34
  call void @llvm.lifetime.start.p0(i64 16, ptr nonnull %3) #9
  %40 = load ptr, ptr %5, align 8
  %41 = getelementptr inbounds nuw i8, ptr %40, i64 24
  %42 = load ptr, ptr %41, align 8
  %43 = load ptr, ptr %42, align 8
  %44 = getelementptr inbounds nuw i8, ptr %43, i64 56
  %45 = load ptr, ptr %44, align 8
  %46 = invoke { i64, i64 } %45(ptr noundef align 8 dereferenceable_or_null(40) %42)
          to label %47 unwind label %65

47:                                               ; preds = %39
  %48 = extractvalue { i64, i64 } %46, 0
  store i64 %48, ptr %3, align 8
  %49 = getelementptr inbounds nuw i8, ptr %3, i64 8
  %50 = extractvalue { i64, i64 } %46, 1
  store i64 %50, ptr %49, align 8
  %51 = trunc i64 %48 to i32
  %52 = add i32 %38, -1
  %53 = add i32 %52, %51
  store i32 %53, ptr %49, align 8
  %54 = load ptr, ptr %5, align 8
  %55 = getelementptr inbounds nuw i8, ptr %54, i64 24
  %56 = load ptr, ptr %55, align 8
  %57 = load ptr, ptr %56, align 8
  %58 = getelementptr inbounds nuw i8, ptr %57, i64 48
  %59 = load ptr, ptr %58, align 8
  invoke void %59(ptr noundef align 8 dereferenceable_or_null(40) %56, ptr noundef nonnull align 4 dereferenceable(16) %3)
          to label %60 unwind label %65

60:                                               ; preds = %47
  call void @llvm.lifetime.end.p0(i64 16, ptr nonnull %3) #9
  ret void

61:                                               ; preds = %28, %25, %22, %19, %16, %13, %10, %8, %7, %2
  %62 = landingpad { ptr, i32 }
          cleanup
  br label %67

63:                                               ; preds = %34, %31
  %64 = landingpad { ptr, i32 }
          cleanup
  br label %67

65:                                               ; preds = %47, %39
  %66 = landingpad { ptr, i32 }
          cleanup
  call void @llvm.lifetime.end.p0(i64 16, ptr nonnull %3) #9
  br label %67

67:                                               ; preds = %63, %65, %61
  %.pn.pn = phi { ptr, i32 } [ %62, %61 ], [ %66, %65 ], [ %64, %63 ]
  call void @_ZN6QFrameD2Ev(ptr noundef align 8 dereferenceable_or_null(40) %0) #9
  resume { ptr, i32 } %.pn.pn
}